; Function Attrs: nounwind uwtable
define noalias ptr @SCT_new() local_unnamed_addr #0 {
  %1 = tail call noalias ptr @CRYPTO_zalloc(i64 noundef 104, ptr noundef nonnull @.str, i32 noundef 24) #7
  %2 = icmp eq ptr %1, null
  br i1 %2, label %5, label %3

3:                                                ; preds = %0
  %4 = getelementptr inbounds nuw i8, ptr %1, i64 88
  store i32 -1, ptr %4, align 8, !tbaa !3
  store i32 -1, ptr %1, align 8, !tbaa !11
  br label %5

5:                                                ; preds = %0, %3
  ret ptr %1
}